; Function Attrs: mustprogress uwtable
define internal fastcc void @_ZL3setIN3gmx24SelectionParserParameterEEvRPT_S2_(ptr nocapture noundef nonnull writeonly align 8 dereferenceable(8) %0, ptr noundef %1) unnamed_addr #4 {
  %3 = tail call noalias noundef nonnull dereferenceable(48) ptr @_Znwm(i64 noundef 48) #24
  tail call void @_ZNSt7__cxx1112basic_stringIcSt11char_traitsIcESaIcEEC1EOS4_(ptr noundef nonnull align 8 dereferenceable(32) %3, ptr noundef nonnull align 8 dereferenceable(32) %1) #21
  %4 = getelementptr inbounds i8, ptr %3, i64 32
  %5 = getelementptr inbounds i8, ptr %1, i64 32
  %6 = getelementptr inbounds i8, ptr %1, i64 40
  %7 = load <2 x i64>, ptr %5, align 8
  store <2 x i64> %7, ptr %4, align 8
  store ptr null, ptr %6, align 8
  store ptr %3, ptr %0, align 8
  ret void
}